; Function Attrs: mustprogress uwtable
define void @_ZN8QuantLib27BatesDoubleExpDetJumpEngineC2ERKN5boost10shared_ptrINS_26BatesDoubleExpDetJumpModelEEEdm(ptr noundef nonnull align 8 dereferenceable(400) %this, ptr nocapture noundef nonnull readonly align 8 dereferenceable(16) %model, double noundef %relTolerance, i64 noundef %maxEvaluations) unnamed_addr #6 align 2 personality ptr @__gxx_personality_v0 {
entry:
  %ref.tmp = alloca %"class.boost::shared_ptr.41", align 8
  call void @llvm.lifetime.start.p0(i64 16, ptr nonnull %ref.tmp) #25
  %0 = load ptr, ptr %model, align 8, !tbaa !65
  store ptr %0, ptr %ref.tmp, align 8, !tbaa !60
  %pn.i = getelementptr inbounds nuw i8, ptr %ref.tmp, i64 8
  %pn3.i = getelementptr inbounds nuw i8, ptr %model, i64 8
  %1 = load ptr, ptr %pn3.i, align 8, !tbaa !37
  store ptr %1, ptr %pn.i, align 8, !tbaa !37
  %cmp.not.i.i = icmp eq ptr %1, null
  br i1 %cmp.not.i.i, label %_ZN5boost10shared_ptrIN8QuantLib19BatesDoubleExpModelEEC2INS1_26BatesDoubleExpDetJumpModelEEERKNS0_IT_EENS_6detail24sp_enable_if_convertibleIS6_S2_E4typeE.exit, label %if.then.i.i

if.then.i.i:                                      ; preds = %entry
  %use_count_.i.i.i = getelementptr inbounds nuw i8, ptr %1, i64 8
  %2 = atomicrmw add ptr %use_count_.i.i.i, i32 1 monotonic, align 4
  br label %_ZN5boost10shared_ptrIN8QuantLib19BatesDoubleExpModelEEC2INS1_26BatesDoubleExpDetJumpModelEEERKNS0_IT_EENS_6detail24sp_enable_if_convertibleIS6_S2_E4typeE.exit

_ZN5boost10shared_ptrIN8QuantLib19BatesDoubleExpModelEEC2INS1_26BatesDoubleExpDetJumpModelEEERKNS0_IT_EENS_6detail24sp_enable_if_convertibleIS6_S2_E4typeE.exit: ; preds = %entry, %if.then.i.i
  invoke void @_ZN8QuantLib20BatesDoubleExpEngineC2ERKN5boost10shared_ptrINS_19BatesDoubleExpModelEEEdm(ptr noundef nonnull align 8 dereferenceable(400) %this, ptr noundef nonnull align 8 dereferenceable(16) %ref.tmp, double noundef %relTolerance, i64 noundef %maxEvaluations)
          to label %invoke.cont unwind label %lpad

invoke.cont:                                      ; preds = %_ZN5boost10shared_ptrIN8QuantLib19BatesDoubleExpModelEEC2INS1_26BatesDoubleExpDetJumpModelEEERKNS0_IT_EENS_6detail24sp_enable_if_convertibleIS6_S2_E4typeE.exit
  br i1 %cmp.not.i.i, label %_ZN5boost10shared_ptrIN8QuantLib19BatesDoubleExpModelEED2Ev.exit, label %if.then.i.i3

if.then.i.i3:                                     ; preds = %invoke.cont
  %use_count_.i.i.i4 = getelementptr inbounds nuw i8, ptr %1, i64 8
  %3 = atomicrmw sub ptr %use_count_.i.i.i4, i32 1 acq_rel, align 4
  %cmp.i.i.i = icmp eq i32 %3, 1
  br i1 %cmp.i.i.i, label %if.then.i.i.i, label %_ZN5boost10shared_ptrIN8QuantLib19BatesDoubleExpModelEED2Ev.exit

if.then.i.i.i:                                    ; preds = %if.then.i.i3
  %vtable.i.i.i = load ptr, ptr %1, align 8, !tbaa !35
  %vfn.i.i.i = getelementptr inbounds i8, ptr %vtable.i.i.i, i64 16
  %4 = load ptr, ptr %vfn.i.i.i, align 8
  invoke void %4(ptr noundef nonnull align 8 dereferenceable(16) %1)
          to label %.noexc.i.i unwind label %terminate.lpad.i.i

.noexc.i.i:                                       ; preds = %if.then.i.i.i
  %weak_count_.i.i.i.i = getelementptr inbounds nuw i8, ptr %1, i64 12
  %5 = atomicrmw sub ptr %weak_count_.i.i.i.i, i32 1 acq_rel, align 4
  %cmp.i.i.i.i = icmp eq i32 %5, 1
  br i1 %cmp.i.i.i.i, label %if.then.i.i.i.i, label %_ZN5boost10shared_ptrIN8QuantLib19BatesDoubleExpModelEED2Ev.exit

if.then.i.i.i.i:                                  ; preds = %.noexc.i.i
  %vtable.i.i.i.i = load ptr, ptr %1, align 8, !tbaa !35
  %vfn.i.i.i.i = getelementptr inbounds i8, ptr %vtable.i.i.i.i, i64 24
  %6 = load ptr, ptr %vfn.i.i.i.i, align 8
  invoke void %6(ptr noundef nonnull align 8 dereferenceable(16) %1)
          to label %_ZN5boost10shared_ptrIN8QuantLib19BatesDoubleExpModelEED2Ev.exit unwind label %terminate.lpad.i.i

terminate.lpad.i.i:                               ; preds = %if.then.i.i.i.i, %if.then.i.i.i
  %7 = landingpad { ptr, i32 }
          catch ptr null
  %8 = extractvalue { ptr, i32 } %7, 0
  tail call void @__clang_call_terminate(ptr %8) #26
  unreachable

_ZN5boost10shared_ptrIN8QuantLib19BatesDoubleExpModelEED2Ev.exit: ; preds = %invoke.cont, %if.then.i.i3, %.noexc.i.i, %if.then.i.i.i.i
  call void @llvm.lifetime.end.p0(i64 16, ptr nonnull %ref.tmp) #25
  store ptr getelementptr inbounds inrange(-16, 64) (i8, ptr @_ZTVN8QuantLib27BatesDoubleExpDetJumpEngineE, i64 16), ptr %this, align 8, !tbaa !35
  %add.ptr = getelementptr inbounds i8, ptr %this, i64 56
  store ptr getelementptr inbounds inrange(-16, 32) (i8, ptr @_ZTVN8QuantLib27BatesDoubleExpDetJumpEngineE, i64 96), ptr %add.ptr, align 8, !tbaa !35
  ret void

lpad:                                             ; preds = %_ZN5boost10shared_ptrIN8QuantLib19BatesDoubleExpModelEEC2INS1_26BatesDoubleExpDetJumpModelEEERKNS0_IT_EENS_6detail24sp_enable_if_convertibleIS6_S2_E4typeE.exit
  %9 = landingpad { ptr, i32 }
          cleanup
  call void @_ZN5boost10shared_ptrIN8QuantLib19BatesDoubleExpModelEED2Ev(ptr noundef nonnull align 8 dereferenceable(16) %ref.tmp) #25
  call void @llvm.lifetime.end.p0(i64 16, ptr nonnull %ref.tmp) #25
  resume { ptr, i32 } %9
}